; Function Attrs: mustprogress uwtable
define void @_ZN4lean4nameC2ERKS0_j(ptr noundef nonnull align 8 dereferenceable(8) initializes((0, 8)) %0, ptr noundef nonnull readonly align 8 captures(none) dereferenceable(8) %1, i32 noundef %2) unnamed_addr #1 align 2 personality ptr @__gxx_personality_v0 {
  %4 = load ptr, ptr %1, align 8, !tbaa !6
  %5 = zext i32 %2 to i64
  %6 = shl nuw nsw i64 %5, 1
  %7 = or disjoint i64 %6, 1
  %8 = inttoptr i64 %7 to ptr
  %9 = tail call ptr @lean_name_mk_numeral(ptr noundef %4, ptr noundef nonnull %8)
  store ptr %9, ptr %0, align 8, !tbaa !6
  %10 = load ptr, ptr %1, align 8, !tbaa !6
  %11 = ptrtoint ptr %10 to i64
  %12 = and i64 %11, 1
  %.not.i = icmp eq i64 %12, 0
  br i1 %.not.i, label %13, label %_ZN4lean3incEP11lean_object.exit

13:                                               ; preds = %3
  %.val.i.i = load i32, ptr %10, align 4, !tbaa !9
  %14 = icmp sgt i32 %.val.i.i, 0
  br i1 %14, label %15, label %17, !prof !12

15:                                               ; preds = %13
  %16 = add nuw nsw i32 %.val.i.i, 1
  store i32 %16, ptr %10, align 4, !tbaa !9
  br label %_ZN4lean3incEP11lean_object.exit

17:                                               ; preds = %13
  %.not.i.i = icmp eq i32 %.val.i.i, 0
  br i1 %.not.i.i, label %_ZN4lean3incEP11lean_object.exit, label %18

18:                                               ; preds = %17
  invoke void @lean_inc_ref_cold(ptr noundef nonnull %10)
          to label %_ZN4lean3incEP11lean_object.exit unwind label %19

_ZN4lean3incEP11lean_object.exit:                 ; preds = %17, %15, %3, %18
  ret void

19:                                               ; preds = %18
  %20 = landingpad { ptr, i32 }
          cleanup
  tail call void @_ZN4lean10object_refD2Ev(ptr noundef nonnull align 8 dereferenceable(8) %0) #19
  resume { ptr, i32 } %20
}